target datalayout = "e-m:e-p270:32:32-p271:32:32-p272:64:64-i64:64-i128:128-f80:128-n8:16:32:64-S128"
target triple = "x86_64-unknown-linux-gnu"

%class.b3RadixSort32CL = type { ptr, ptr, ptr, ptr, ptr, ptr, ptr, ptr, ptr, ptr, ptr, ptr, ptr, i8, ptr, ptr }

@_ZTV15b3RadixSort32CL = dso_local unnamed_addr constant { [4 x ptr] } { [4 x ptr] [ptr null, ptr @_ZTI15b3RadixSort32CL, ptr @_ZN15b3RadixSort32CLD1Ev, ptr @_ZN15b3RadixSort32CLD0Ev] }, align 8
@__clewReleaseKernel = external global ptr, align 8

; Function Attrs: mustprogress nounwind uwtable
define dso_local void @_ZN15b3RadixSort32CLD2Ev(ptr noundef nonnull align 8 dereferenceable(128) %this) unnamed_addr #4 align 2 personality ptr @__gxx_personality_v0 {
entry:
  %this.addr = alloca ptr, align 8
  store ptr %this, ptr %this.addr, align 8
  %this1 = load ptr, ptr %this.addr, align 8
  store ptr getelementptr inbounds ({ [4 x ptr] }, ptr @_ZTV15b3RadixSort32CL, i32 0, i32 0, i32 2), ptr %this1, align 8
  %m_scan = getelementptr inbounds %class.b3RadixSort32CL, ptr %this1, i32 0, i32 14
  %0 = load ptr, ptr %m_scan, align 8
  %isnull = icmp eq ptr %0, null
  br i1 %isnull, label %delete.end, label %delete.notnull

delete.notnull:                                   ; preds = %entry
  %vtable = load ptr, ptr %0, align 8
  %vfn = getelementptr inbounds ptr, ptr %vtable, i64 1
  %1 = load ptr, ptr %vfn, align 8
  call void %1(ptr noundef nonnull align 8 dereferenceable(48) %0) #11
  br label %delete.end

delete.end:                                       ; preds = %delete.notnull, %entry
  %m_fill = getelementptr inbounds %class.b3RadixSort32CL, ptr %this1, i32 0, i32 15
  %2 = load ptr, ptr %m_fill, align 8
  %isnull2 = icmp eq ptr %2, null
  br i1 %isnull2, label %delete.end6, label %delete.notnull3

delete.notnull3:                                  ; preds = %delete.end
  %vtable4 = load ptr, ptr %2, align 8
  %vfn5 = getelementptr inbounds ptr, ptr %vtable4, i64 1
  %3 = load ptr, ptr %vfn5, align 8
  call void %3(ptr noundef nonnull align 8 dereferenceable(48) %2) #11
  br label %delete.end6

delete.end6:                                      ; preds = %delete.notnull3, %delete.end
  %m_workBuffer1 = getelementptr inbounds %class.b3RadixSort32CL, ptr %this1, i32 0, i32 1
  %4 = load ptr, ptr %m_workBuffer1, align 8
  %isnull7 = icmp eq ptr %4, null
  br i1 %isnull7, label %delete.end11, label %delete.notnull8

delete.notnull8:                                  ; preds = %delete.end6
  %vtable9 = load ptr, ptr %4, align 8
  %vfn10 = getelementptr inbounds ptr, ptr %vtable9, i64 1
  %5 = load ptr, ptr %vfn10, align 8
  call void %5(ptr noundef nonnull align 8 dereferenceable(50) %4) #11
  br label %delete.end11

delete.end11:                                     ; preds = %delete.notnull8, %delete.end6
  %m_workBuffer2 = getelementptr inbounds %class.b3RadixSort32CL, ptr %this1, i32 0, i32 2
  %6 = load ptr, ptr %m_workBuffer2, align 8
  %isnull12 = icmp eq ptr %6, null
  br i1 %isnull12, label %delete.end16, label %delete.notnull13

delete.notnull13:                                 ; preds = %delete.end11
  %vtable14 = load ptr, ptr %6, align 8
  %vfn15 = getelementptr inbounds ptr, ptr %vtable14, i64 1
  %7 = load ptr, ptr %vfn15, align 8
  call void %7(ptr noundef nonnull align 8 dereferenceable(50) %6) #11
  br label %delete.end16

delete.end16:                                     ; preds = %delete.notnull13, %delete.end11
  %m_workBuffer3 = getelementptr inbounds %class.b3RadixSort32CL, ptr %this1, i32 0, i32 3
  %8 = load ptr, ptr %m_workBuffer3, align 8
  %isnull17 = icmp eq ptr %8, null
  br i1 %isnull17, label %delete.end21, label %delete.notnull18

delete.notnull18:                                 ; preds = %delete.end16
  %vtable19 = load ptr, ptr %8, align 8
  %vfn20 = getelementptr inbounds ptr, ptr %vtable19, i64 1
  %9 = load ptr, ptr %vfn20, align 8
  call void %9(ptr noundef nonnull align 8 dereferenceable(50) %8) #11
  br label %delete.end21

delete.end21:                                     ; preds = %delete.notnull18, %delete.end16
  %m_workBuffer3a = getelementptr inbounds %class.b3RadixSort32CL, ptr %this1, i32 0, i32 5
  %10 = load ptr, ptr %m_workBuffer3a, align 8
  %isnull22 = icmp eq ptr %10, null
  br i1 %isnull22, label %delete.end26, label %delete.notnull23

delete.notnull23:                                 ; preds = %delete.end21
  %vtable24 = load ptr, ptr %10, align 8
  %vfn25 = getelementptr inbounds ptr, ptr %vtable24, i64 1
  %11 = load ptr, ptr %vfn25, align 8
  call void %11(ptr noundef nonnull align 8 dereferenceable(50) %10) #11
  br label %delete.end26

delete.end26:                                     ; preds = %delete.notnull23, %delete.end21
  %m_workBuffer4 = getelementptr inbounds %class.b3RadixSort32CL, ptr %this1, i32 0, i32 4
  %12 = load ptr, ptr %m_workBuffer4, align 8
  %isnull27 = icmp eq ptr %12, null
  br i1 %isnull27, label %delete.end31, label %delete.notnull28

delete.notnull28:                                 ; preds = %delete.end26
  %vtable29 = load ptr, ptr %12, align 8
  %vfn30 = getelementptr inbounds ptr, ptr %vtable29, i64 1
  %13 = load ptr, ptr %vfn30, align 8
  call void %13(ptr noundef nonnull align 8 dereferenceable(50) %12) #11
  br label %delete.end31

delete.end31:                                     ; preds = %delete.notnull28, %delete.end26
  %m_workBuffer4a = getelementptr inbounds %class.b3RadixSort32CL, ptr %this1, i32 0, i32 6
  %14 = load ptr, ptr %m_workBuffer4a, align 8
  %isnull32 = icmp eq ptr %14, null
  br i1 %isnull32, label %delete.end36, label %delete.notnull33

delete.notnull33:                                 ; preds = %delete.end31
  %vtable34 = load ptr, ptr %14, align 8
  %vfn35 = getelementptr inbounds ptr, ptr %vtable34, i64 1
  %15 = load ptr, ptr %vfn35, align 8
  call void %15(ptr noundef nonnull align 8 dereferenceable(50) %14) #11
  br label %delete.end36

delete.end36:                                     ; preds = %delete.notnull33, %delete.end31
  %16 = load ptr, ptr @__clewReleaseKernel, align 8
  %m_streamCountSortDataKernel = getelementptr inbounds %class.b3RadixSort32CL, ptr %this1, i32 0, i32 8
  %17 = load ptr, ptr %m_streamCountSortDataKernel, align 8
  %call = invoke i32 %16(ptr noundef %17)
          to label %invoke.cont unwind label %terminate.lpad

invoke.cont:                                      ; preds = %delete.end36
  %18 = load ptr, ptr @__clewReleaseKernel, align 8
  %m_streamCountKernel = getelementptr inbounds %class.b3RadixSort32CL, ptr %this1, i32 0, i32 9
  %19 = load ptr, ptr %m_streamCountKernel, align 8
  %call38 = invoke i32 %18(ptr noundef %19)
          to label %invoke.cont37 unwind label %terminate.lpad

invoke.cont37:                                    ; preds = %invoke.cont
  %20 = load ptr, ptr @__clewReleaseKernel, align 8
  %m_sortAndScatterSortDataKernel = getelementptr inbounds %class.b3RadixSort32CL, ptr %this1, i32 0, i32 11
  %21 = load ptr, ptr %m_sortAndScatterSortDataKernel, align 8
  %call40 = invoke i32 %20(ptr noundef %21)
          to label %invoke.cont39 unwind label %terminate.lpad

invoke.cont39:                                    ; preds = %invoke.cont37
  %22 = load ptr, ptr @__clewReleaseKernel, align 8
  %m_sortAndScatterKernel = getelementptr inbounds %class.b3RadixSort32CL, ptr %this1, i32 0, i32 12
  %23 = load ptr, ptr %m_sortAndScatterKernel, align 8
  %call42 = invoke i32 %22(ptr noundef %23)
          to label %invoke.cont41 unwind label %terminate.lpad

invoke.cont41:                                    ; preds = %invoke.cont39
  %24 = load ptr, ptr @__clewReleaseKernel, align 8
  %m_prefixScanKernel = getelementptr inbounds %class.b3RadixSort32CL, ptr %this1, i32 0, i32 10
  %25 = load ptr, ptr %m_prefixScanKernel, align 8
  %call44 = invoke i32 %24(ptr noundef %25)
          to label %invoke.cont43 unwind label %terminate.lpad

invoke.cont43:                                    ; preds = %invoke.cont41
  ret void

terminate.lpad:                                   ; preds = %invoke.cont41, %invoke.cont39, %invoke.cont37, %invoke.cont, %delete.end36
  %26 = landingpad { ptr, i32 }
          catch ptr null
  %27 = extractvalue { ptr, i32 } %26, 0
  call void @__clang_call_terminate(ptr %27) #12
  unreachable
}