; Function Attrs: mustprogress nounwind uwtable
define dso_local void @_ZN15b3RadixSort32CLD2Ev(ptr nocapture noundef nonnull align 8 dereferenceable(128) %this) unnamed_addr #4 align 2 personality ptr @__gxx_personality_v0 {
entry:
  store ptr getelementptr inbounds ({ [4 x ptr] }, ptr @_ZTV15b3RadixSort32CL, i64 0, i32 0, i64 2), ptr %this, align 8
  %m_scan = getelementptr inbounds i8, ptr %this, i64 112
  %0 = load ptr, ptr %m_scan, align 8
  %isnull = icmp eq ptr %0, null
  br i1 %isnull, label %delete.end, label %delete.notnull

delete.notnull:                                   ; preds = %entry
  %vtable = load ptr, ptr %0, align 8
  %vfn = getelementptr inbounds i8, ptr %vtable, i64 8
  %1 = load ptr, ptr %vfn, align 8
  tail call void %1(ptr noundef nonnull align 8 dereferenceable(48) %0) #15
  br label %delete.end

delete.end:                                       ; preds = %delete.notnull, %entry
  %m_fill = getelementptr inbounds i8, ptr %this, i64 120
  %2 = load ptr, ptr %m_fill, align 8
  %isnull2 = icmp eq ptr %2, null
  br i1 %isnull2, label %delete.end6, label %delete.notnull3

delete.notnull3:                                  ; preds = %delete.end
  %vtable4 = load ptr, ptr %2, align 8
  %vfn5 = getelementptr inbounds i8, ptr %vtable4, i64 8
  %3 = load ptr, ptr %vfn5, align 8
  tail call void %3(ptr noundef nonnull align 8 dereferenceable(48) %2) #15
  br label %delete.end6

delete.end6:                                      ; preds = %delete.notnull3, %delete.end
  %m_workBuffer1 = getelementptr inbounds i8, ptr %this, i64 8
  %4 = load ptr, ptr %m_workBuffer1, align 8
  %isnull7 = icmp eq ptr %4, null
  br i1 %isnull7, label %delete.end11, label %delete.notnull8

delete.notnull8:                                  ; preds = %delete.end6
  %vtable9 = load ptr, ptr %4, align 8
  %vfn10 = getelementptr inbounds i8, ptr %vtable9, i64 8
  %5 = load ptr, ptr %vfn10, align 8
  tail call void %5(ptr noundef nonnull align 8 dereferenceable(50) %4) #15
  br label %delete.end11

delete.end11:                                     ; preds = %delete.notnull8, %delete.end6
  %m_workBuffer2 = getelementptr inbounds i8, ptr %this, i64 16
  %6 = load ptr, ptr %m_workBuffer2, align 8
  %isnull12 = icmp eq ptr %6, null
  br i1 %isnull12, label %delete.end16, label %delete.notnull13

delete.notnull13:                                 ; preds = %delete.end11
  %vtable14 = load ptr, ptr %6, align 8
  %vfn15 = getelementptr inbounds i8, ptr %vtable14, i64 8
  %7 = load ptr, ptr %vfn15, align 8
  tail call void %7(ptr noundef nonnull align 8 dereferenceable(50) %6) #15
  br label %delete.end16

delete.end16:                                     ; preds = %delete.notnull13, %delete.end11
  %m_workBuffer3 = getelementptr inbounds i8, ptr %this, i64 24
  %8 = load ptr, ptr %m_workBuffer3, align 8
  %isnull17 = icmp eq ptr %8, null
  br i1 %isnull17, label %delete.end21, label %delete.notnull18

delete.notnull18:                                 ; preds = %delete.end16
  %vtable19 = load ptr, ptr %8, align 8
  %vfn20 = getelementptr inbounds i8, ptr %vtable19, i64 8
  %9 = load ptr, ptr %vfn20, align 8
  tail call void %9(ptr noundef nonnull align 8 dereferenceable(50) %8) #15
  br label %delete.end21

delete.end21:                                     ; preds = %delete.notnull18, %delete.end16
  %m_workBuffer3a = getelementptr inbounds i8, ptr %this, i64 40
  %10 = load ptr, ptr %m_workBuffer3a, align 8
  %isnull22 = icmp eq ptr %10, null
  br i1 %isnull22, label %delete.end26, label %delete.notnull23

delete.notnull23:                                 ; preds = %delete.end21
  %vtable24 = load ptr, ptr %10, align 8
  %vfn25 = getelementptr inbounds i8, ptr %vtable24, i64 8
  %11 = load ptr, ptr %vfn25, align 8
  tail call void %11(ptr noundef nonnull align 8 dereferenceable(50) %10) #15
  br label %delete.end26

delete.end26:                                     ; preds = %delete.notnull23, %delete.end21
  %m_workBuffer4 = getelementptr inbounds i8, ptr %this, i64 32
  %12 = load ptr, ptr %m_workBuffer4, align 8
  %isnull27 = icmp eq ptr %12, null
  br i1 %isnull27, label %delete.end31, label %delete.notnull28

delete.notnull28:                                 ; preds = %delete.end26
  %vtable29 = load ptr, ptr %12, align 8
  %vfn30 = getelementptr inbounds i8, ptr %vtable29, i64 8
  %13 = load ptr, ptr %vfn30, align 8
  tail call void %13(ptr noundef nonnull align 8 dereferenceable(50) %12) #15
  br label %delete.end31

delete.end31:                                     ; preds = %delete.notnull28, %delete.end26
  %m_workBuffer4a = getelementptr inbounds i8, ptr %this, i64 48
  %14 = load ptr, ptr %m_workBuffer4a, align 8
  %isnull32 = icmp eq ptr %14, null
  br i1 %isnull32, label %delete.end36, label %delete.notnull33

delete.notnull33:                                 ; preds = %delete.end31
  %vtable34 = load ptr, ptr %14, align 8
  %vfn35 = getelementptr inbounds i8, ptr %vtable34, i64 8
  %15 = load ptr, ptr %vfn35, align 8
  tail call void %15(ptr noundef nonnull align 8 dereferenceable(50) %14) #15
  br label %delete.end36

delete.end36:                                     ; preds = %delete.notnull33, %delete.end31
  %16 = load ptr, ptr @__clewReleaseKernel, align 8
  %m_streamCountSortDataKernel = getelementptr inbounds i8, ptr %this, i64 64
  %17 = load ptr, ptr %m_streamCountSortDataKernel, align 8
  %call = invoke i32 %16(ptr noundef %17)
          to label %invoke.cont unwind label %terminate.lpad

invoke.cont:                                      ; preds = %delete.end36
  %18 = load ptr, ptr @__clewReleaseKernel, align 8
  %m_streamCountKernel = getelementptr inbounds i8, ptr %this, i64 72
  %19 = load ptr, ptr %m_streamCountKernel, align 8
  %call38 = invoke i32 %18(ptr noundef %19)
          to label %invoke.cont37 unwind label %terminate.lpad

invoke.cont37:                                    ; preds = %invoke.cont
  %20 = load ptr, ptr @__clewReleaseKernel, align 8
  %m_sortAndScatterSortDataKernel = getelementptr inbounds i8, ptr %this, i64 88
  %21 = load ptr, ptr %m_sortAndScatterSortDataKernel, align 8
  %call40 = invoke i32 %20(ptr noundef %21)
          to label %invoke.cont39 unwind label %terminate.lpad

invoke.cont39:                                    ; preds = %invoke.cont37
  %22 = load ptr, ptr @__clewReleaseKernel, align 8
  %m_sortAndScatterKernel = getelementptr inbounds i8, ptr %this, i64 96
  %23 = load ptr, ptr %m_sortAndScatterKernel, align 8
  %call42 = invoke i32 %22(ptr noundef %23)
          to label %invoke.cont41 unwind label %terminate.lpad

invoke.cont41:                                    ; preds = %invoke.cont39
  %24 = load ptr, ptr @__clewReleaseKernel, align 8
  %m_prefixScanKernel = getelementptr inbounds i8, ptr %this, i64 80
  %25 = load ptr, ptr %m_prefixScanKernel, align 8
  %call44 = invoke i32 %24(ptr noundef %25)
          to label %invoke.cont43 unwind label %terminate.lpad

invoke.cont43:                                    ; preds = %invoke.cont41
  ret void

terminate.lpad:                                   ; preds = %invoke.cont41, %invoke.cont39, %invoke.cont37, %invoke.cont, %delete.end36
  %26 = landingpad { ptr, i32 }
          catch ptr null
  %27 = extractvalue { ptr, i32 } %26, 0
  tail call void @__clang_call_terminate(ptr %27) #16
  unreachable
}